ccopy_reg
_reconstructor
p1
(cxml.etree.ElementTree
ElementTree
p2
c__builtin__
object
p3
NtRp4
(dp5
S'_root'
p6
g1
(cxml.etree.ElementTree
Element
p7
g3
NtRp8
(dp9
S'text'
p10
S'\n    '
p11
sS'attrib'
p12
(dp13
sS'tag'
p14
S'annotation'
p15
sS'_children'
p16
(lp17
g1
(g7
g3
NtRp18
(dp19
g10
S'VOC2007'
p20
sg12
(dp21
sg14
S'folder'
p22
sS'tail'
p23
S'\n    '
p24
sg16
(lp25
sbag1
(g7
g3
NtRp26
(dp27
g10
S'000001.jpg'
p28
sg12
(dp29
sg14
S'filename'
p30
sg23
S'\n    '
p31
sg16
(lp32
sbag1
(g7
g3
NtRp33
(dp34
g10
S'\n        '
p35
sg12
(dp36
sg14
S'source'
p37
sg23
S'\n    '
p38
sg16
(lp39
g1
(g7
g3
NtRp40
(dp41
g10
S'The VOC2007 Database'
p42
sg12
(dp43
sg14
S'database'
p44
sg23
S'\n        '
p45
sg16
(lp46
sbag1
(g7
g3
NtRp47
(dp48
g10
S'PASCAL VOC2007'
p49
sg12
(dp50
sg14
g15
sg23
S'\n        '
p51
sg16
(lp52
sbag1
(g7
g3
NtRp53
(dp54
g10
S'flickr'
p55
sg12
(dp56
sg14
S'image'
p57
sg23
S'\n        '
p58
sg16
(lp59
sbag1
(g7
g3
NtRp60
(dp61
g10
S'194179466'
p62
sg12
(dp63
sg14
S'flickrid'
p64
sg23
S'\n    '
p65
sg16
(lp66
sbasbag1
(g7
g3
NtRp67
(dp68
g10
S'\n        '
p69
sg12
(dp70
sg14
S'owner'
p71
sg23
S'\n    '
p72
sg16
(lp73
g1
(g7
g3
NtRp74
(dp75
g10
S'monsieurrompu'
p76
sg12
(dp77
sg14
g64
sg23
S'\n        '
p78
sg16
(lp79
sbag1
(g7
g3
NtRp80
(dp81
g10
S'Thom Zemanek'
p82
sg12
(dp83
sg14
S'name'
p84
sg23
S'\n    '
p85
sg16
(lp86
sbasbag1
(g7
g3
NtRp87
(dp88
g10
S'\n        '
p89
sg12
(dp90
sg14
S'size'
p91
sg23
S'\n    '
p92
sg16
(lp93
g1
(g7
g3
NtRp94
(dp95
g10
S'500'
p96
sg12
(dp97
sg14
S'width'
p98
sg23
S'\n        '
p99
sg16
(lp100
sbag1
(g7
g3
NtRp101
(dp102
g10
S'326'
p103
sg12
(dp104
sg14
S'height'
p105
sg23
S'\n        '
p106
sg16
(lp107
sbag1
(g7
g3
NtRp108
(dp109
g10
S'3'
sg12
(dp110
sg14
S'depth'
p111
sg23
S'\n    '
p112
sg16
(lp113
sbasbag1
(g7
g3
NtRp114
(dp115
g10
S'0'
sg12
(dp116
sg14
S'segmented'
p117
sg23
S'\n    '
p118
sg16
(lp119
sbag1
(g7
g3
NtRp120
(dp121
g10
S'\n        '
p122
sg12
(dp123
sg14
S'object'
p124
sg23
S'\n'
sg16
(lp125
g1
(g7
g3
NtRp126
(dp127
g10
S'car'
p128
sg12
(dp129
sg14
g84
sg23
S'\n        '
p130
sg16
(lp131
sbag1
(g7
g3
NtRp132
(dp133
g10
S'Unspecified'
p134
sg12
(dp135
sg14
S'pose'
p136
sg23
S'\n        '
p137
sg16
(lp138
sbag1
(g7
g3
NtRp139
(dp140
g10
S'1'
sg12
(dp141
sg14
S'truncated'
p142
sg23
S'\n        '
p143
sg16
(lp144
sbag1
(g7
g3
NtRp145
(dp146
g10
S'0'
sg12
(dp147
sg14
S'difficult'
p148
sg23
S'\n        '
p149
sg16
(lp150
sbag1
(g7
g3
NtRp151
(dp152
g10
S'\n            '
p153
sg12
(dp154
sg14
S'bndbox'
p155
sg23
S'\n    '
p156
sg16
(lp157
g1
(g7
g3
NtRp158
(dp159
g10
S'181'
p160
sg12
(dp161
sg14
S'xmin'
p162
sg23
S'\n            '
p163
sg16
(lp164
sbag1
(g7
g3
NtRp165
(dp166
g10
S'26'
p167
sg12
(dp168
sg14
S'ymin'
p169
sg23
S'\n            '
p170
sg16
(lp171
sbag1
(g7
g3
NtRp172
(dp173
g10
S'500'
p174
sg12
(dp175
sg14
S'xmax'
p176
sg23
S'\n            '
p177
sg16
(lp178
sbag1
(g7
g3
NtRp179
(dp180
g10
S'325'
p181
sg12
(dp182
sg14
S'ymax'
p183
sg23
S'\n        '
p184
sg16
(lp185
sbasbasbasbsb.